target datalayout = "e-m:e-p270:32:32-p271:32:32-p272:64:64-i64:64-i128:128-f80:128-n8:16:32:64-S128"
target triple = "x86_64-pc-linux-gnu"

%struct._zend_refcounted_h = type { i32, %union.anon.3 }
%union.anon.3 = type { i32 }
%struct._zend_resource = type { %struct._zend_refcounted_h, i64, i32, ptr }

@.str.1 = private unnamed_addr constant [55 x i8] c"%s%s%s(): supplied resource is not a valid %s resource\00", align 1

; Function Attrs: nounwind uwtable
define ptr @zend_fetch_resource2(ptr noundef %0, ptr noundef %1, i32 noundef %2, i32 noundef %3) #0 {
  %5 = alloca ptr, align 8
  %6 = alloca ptr, align 8
  %7 = alloca ptr, align 8
  %8 = alloca i32, align 4
  %9 = alloca i32, align 4
  %10 = alloca ptr, align 8
  %11 = alloca ptr, align 8
  store ptr %0, ptr %6, align 8
  store ptr %1, ptr %7, align 8
  store i32 %2, ptr %8, align 4
  store i32 %3, ptr %9, align 4
  %12 = load ptr, ptr %6, align 8
  %13 = icmp ne ptr %12, null
  br i1 %13, label %14, label %35

14:                                               ; preds = %4
  %15 = load i32, ptr %8, align 4
  %16 = load ptr, ptr %6, align 8
  %17 = getelementptr inbounds %struct._zend_resource, ptr %16, i32 0, i32 2
  %18 = load i32, ptr %17, align 8
  %19 = icmp eq i32 %15, %18
  br i1 %19, label %20, label %24

20:                                               ; preds = %14
  %21 = load ptr, ptr %6, align 8
  %22 = getelementptr inbounds %struct._zend_resource, ptr %21, i32 0, i32 3
  %23 = load ptr, ptr %22, align 8
  store ptr %23, ptr %5, align 8
  br label %45

24:                                               ; preds = %14
  %25 = load i32, ptr %9, align 4
  %26 = load ptr, ptr %6, align 8
  %27 = getelementptr inbounds %struct._zend_resource, ptr %26, i32 0, i32 2
  %28 = load i32, ptr %27, align 8
  %29 = icmp eq i32 %25, %28
  br i1 %29, label %30, label %34

30:                                               ; preds = %24
  %31 = load ptr, ptr %6, align 8
  %32 = getelementptr inbounds %struct._zend_resource, ptr %31, i32 0, i32 3
  %33 = load ptr, ptr %32, align 8
  store ptr %33, ptr %5, align 8
  br label %45

34:                                               ; preds = %24
  br label %35

35:                                               ; preds = %34, %4
  %36 = load ptr, ptr %7, align 8
  %37 = icmp ne ptr %36, null
  br i1 %37, label %38, label %44

38:                                               ; preds = %35
  %39 = call ptr @get_active_class_name(ptr noundef %10)
  store ptr %39, ptr %11, align 8
  %40 = load ptr, ptr %11, align 8
  %41 = load ptr, ptr %10, align 8
  %42 = call ptr @get_active_function_name()
  %43 = load ptr, ptr %7, align 8
  call void (ptr, ...) @zend_type_error(ptr noundef @.str.1, ptr noundef %40, ptr noundef %41, ptr noundef %42, ptr noundef %43)
  br label %44

44:                                               ; preds = %38, %35
  store ptr null, ptr %5, align 8
  br label %45

45:                                               ; preds = %44, %30, %20
  %46 = load ptr, ptr %5, align 8
  ret ptr %46
}