; Function Attrs: nounwind uwtable
define ptr @zend_fetch_resource2(ptr noundef readonly %0, ptr noundef %1, i32 noundef %2, i32 noundef %3) local_unnamed_addr #0 {
  %5 = alloca ptr, align 8
  %.not = icmp eq ptr %0, null
  br i1 %.not, label %18, label %6

6:                                                ; preds = %4
  %7 = getelementptr inbounds i8, ptr %0, i64 16
  %8 = load i32, ptr %7, align 8
  %9 = icmp eq i32 %8, %2
  br i1 %9, label %10, label %13

10:                                               ; preds = %6
  %11 = getelementptr inbounds i8, ptr %0, i64 24
  %12 = load ptr, ptr %11, align 8
  br label %23

13:                                               ; preds = %6
  %14 = icmp eq i32 %8, %3
  br i1 %14, label %15, label %18

15:                                               ; preds = %13
  %16 = getelementptr inbounds i8, ptr %0, i64 24
  %17 = load ptr, ptr %16, align 8
  br label %23

18:                                               ; preds = %13, %4
  %.not13 = icmp eq ptr %1, null
  br i1 %.not13, label %23, label %19

19:                                               ; preds = %18
  %20 = call ptr @get_active_class_name(ptr noundef nonnull %5) #14
  %21 = load ptr, ptr %5, align 8
  %22 = call ptr @get_active_function_name() #14
  call void (ptr, ...) @zend_type_error(ptr noundef nonnull @.str.1, ptr noundef %20, ptr noundef %21, ptr noundef %22, ptr noundef nonnull %1) #14
  br label %23

23:                                               ; preds = %18, %19, %15, %10
  %.0 = phi ptr [ %12, %10 ], [ %17, %15 ], [ null, %19 ], [ null, %18 ]
  ret ptr %.0
}